target datalayout = "e-m:e-p270:32:32-p271:32:32-p272:64:64-i64:64-i128:128-f80:128-n8:16:32:64-S128"
target triple = "x86_64-pc-linux-gnu"

%struct.AV1DecTileMTData = type { ptr, ptr, i32, i32, i32, i32 }

; Function Attrs: nounwind uwtable
define hidden void @av1_dealloc_dec_jobs(ptr noundef %0) #0 {
  %2 = alloca ptr, align 8
  store ptr %0, ptr %2, align 8
  %3 = load ptr, ptr %2, align 8
  %4 = icmp ne ptr %3, null
  br i1 %4, label %5, label %23

5:                                                ; preds = %1
  %6 = load ptr, ptr %2, align 8
  %7 = getelementptr inbounds nuw %struct.AV1DecTileMTData, ptr %6, i32 0, i32 0
  %8 = load ptr, ptr %7, align 8
  %9 = icmp ne ptr %8, null
  br i1 %9, label %10, label %18

10:                                               ; preds = %5
  %11 = load ptr, ptr %2, align 8
  %12 = getelementptr inbounds nuw %struct.AV1DecTileMTData, ptr %11, i32 0, i32 0
  %13 = load ptr, ptr %12, align 8
  %14 = call i32 @pthread_mutex_destroy(ptr noundef %13) #7
  %15 = load ptr, ptr %2, align 8
  %16 = getelementptr inbounds nuw %struct.AV1DecTileMTData, ptr %15, i32 0, i32 0
  %17 = load ptr, ptr %16, align 8
  call void @aom_free(ptr noundef %17)
  br label %18

18:                                               ; preds = %10, %5
  %19 = load ptr, ptr %2, align 8
  %20 = getelementptr inbounds nuw %struct.AV1DecTileMTData, ptr %19, i32 0, i32 1
  %21 = load ptr, ptr %20, align 8
  call void @aom_free(ptr noundef %21)
  %22 = load ptr, ptr %2, align 8
  call void @llvm.memset.p0.i64(ptr align 8 %22, i8 0, i64 32, i1 false)
  br label %23

23:                                               ; preds = %18, %1
  ret void
}