; Function Attrs: nounwind uwtable
define hidden void @av1_dealloc_dec_jobs(ptr noundef %0) local_unnamed_addr #0 {
  %.not = icmp eq ptr %0, null
  br i1 %.not, label %10, label %2

2:                                                ; preds = %1
  %3 = load ptr, ptr %0, align 8
  %.not7 = icmp eq ptr %3, null
  br i1 %.not7, label %7, label %4

4:                                                ; preds = %2
  %5 = tail call i32 @pthread_mutex_destroy(ptr noundef nonnull %3) #10
  %6 = load ptr, ptr %0, align 8
  tail call void @aom_free(ptr noundef %6) #10
  br label %7

7:                                                ; preds = %4, %2
  %8 = getelementptr inbounds nuw i8, ptr %0, i64 8
  %9 = load ptr, ptr %8, align 8
  tail call void @aom_free(ptr noundef %9) #10
  tail call void @llvm.memset.p0.i64(ptr noundef nonnull align 8 dereferenceable(32) %0, i8 0, i64 32, i1 false)
  br label %10

10:                                               ; preds = %7, %1
  ret void
}